target datalayout = "e-m:e-p270:32:32-p271:32:32-p272:64:64-i64:64-i128:128-f80:128-n8:16:32:64-S128"
target triple = "x86_64-unknown-linux-gnu"

%"class.facebook::velox::memory::MmapArena" = type { i64, ptr, %"struct.std::atomic", %"class.std::map", %"class.std::map.0" }
%"struct.std::atomic" = type { %"struct.std::__atomic_base" }
%"struct.std::__atomic_base" = type { i64 }
%"class.std::map" = type { %"class.std::_Rb_tree" }
%"class.std::_Rb_tree" = type { %"struct.std::_Rb_tree<unsigned long, std::pair<const unsigned long, unsigned long>, std::_Select1st<std::pair<const unsigned long, unsigned long>>, std::less<unsigned long>>::_Rb_tree_impl" }
%"struct.std::_Rb_tree<unsigned long, std::pair<const unsigned long, unsigned long>, std::_Select1st<std::pair<const unsigned long, unsigned long>>, std::less<unsigned long>>::_Rb_tree_impl" = type { %"struct.std::_Rb_tree_key_compare", %"struct.std::_Rb_tree_header" }
%"struct.std::_Rb_tree_key_compare" = type { %"struct.std::less" }
%"struct.std::less" = type { i8 }
%"struct.std::_Rb_tree_header" = type { %"struct.std::_Rb_tree_node_base", i64 }
%"struct.std::_Rb_tree_node_base" = type { i32, ptr, ptr, ptr }
%"class.std::map.0" = type { %"class.std::_Rb_tree.1" }
%"class.std::_Rb_tree.1" = type { %"struct.std::_Rb_tree<unsigned long, std::pair<const unsigned long, std::unordered_set<unsigned long>>, std::_Select1st<std::pair<const unsigned long, std::unordered_set<unsigned long>>>, std::less<unsigned long>>::_Rb_tree_impl" }
%"struct.std::_Rb_tree<unsigned long, std::pair<const unsigned long, std::unordered_set<unsigned long>>, std::_Select1st<std::pair<const unsigned long, std::unordered_set<unsigned long>>>, std::less<unsigned long>>::_Rb_tree_impl" = type { %"struct.std::_Rb_tree_key_compare", %"struct.std::_Rb_tree_header" }

; Function Attrs: mustprogress uwtable
define linkonce_odr noundef i64 @_ZNSt3mapImmSt4lessImESaISt4pairIKmmEEE5eraseERS3_(ptr noundef nonnull align 8 dereferenceable(48) %this, ptr noundef nonnull align 8 dereferenceable(8) %__x) #0 comdat align 2 {
entry:
  %this.addr = alloca ptr, align 8
  %__x.addr = alloca ptr, align 8
  store ptr %this, ptr %this.addr, align 8
  store ptr %__x, ptr %__x.addr, align 8
  %this1 = load ptr, ptr %this.addr, align 8
  %_M_t = getelementptr inbounds %"class.std::map", ptr %this1, i32 0, i32 0
  %0 = load ptr, ptr %__x.addr, align 8
  %call = call noundef i64 @_ZNSt8_Rb_treeImSt4pairIKmmESt10_Select1stIS2_ESt4lessImESaIS2_EE5eraseERS1_(ptr noundef nonnull align 8 dereferenceable(48) %_M_t, ptr noundef nonnull align 8 dereferenceable(8) %0)
  ret i64 %call
}

; Function Attrs: mustprogress uwtable
define void @_ZN8facebook5velox6memory9MmapArena15removeFreeBlockEmm(ptr noundef nonnull align 8 dereferenceable(120) %this, i64 noundef %addr, i64 noundef %bytes) #0 align 2 {
entry:
  %this.addr = alloca ptr, align 8
  %addr.addr = alloca i64, align 8
  %bytes.addr = alloca i64, align 8
  store ptr %this, ptr %this.addr, align 8
  store i64 %addr, ptr %addr.addr, align 8
  store i64 %bytes, ptr %bytes.addr, align 8
  %this1 = load ptr, ptr %this.addr, align 8
  %freeList_ = getelementptr inbounds %"class.facebook::velox::memory::MmapArena", ptr %this1, i32 0, i32 3
  %call = call noundef i64 @_ZNSt3mapImmSt4lessImESaISt4pairIKmmEEE5eraseERS3_(ptr noundef nonnull align 8 dereferenceable(48) %freeList_, ptr noundef nonnull align 8 dereferenceable(8) %addr.addr)
  %0 = load i64, ptr %addr.addr, align 8
  %1 = load i64, ptr %bytes.addr, align 8
  call void @_ZN8facebook5velox6memory9MmapArena16removeFromLookupEmm(ptr noundef nonnull align 8 dereferenceable(120) %this1, i64 noundef %0, i64 noundef %1)
  ret void
}