; Function Attrs: mustprogress uwtable
define void @_ZN8facebook5velox6memory9MmapArena15removeFreeBlockEmm(ptr noundef nonnull align 8 dereferenceable(120) %this, i64 noundef %addr, i64 noundef %bytes) local_unnamed_addr #1 align 2 {
entry:
  %addr.addr = alloca i64, align 8
  store i64 %addr, ptr %addr.addr, align 8
  %freeList_ = getelementptr inbounds i8, ptr %this, i64 24
  %call.i = call noundef i64 @_ZNSt8_Rb_treeImSt4pairIKmmESt10_Select1stIS2_ESt4lessImESaIS2_EE5eraseERS1_(ptr noundef nonnull align 8 dereferenceable(48) %freeList_, ptr noundef nonnull align 8 dereferenceable(8) %addr.addr)
  %0 = load i64, ptr %addr.addr, align 8
  call void @_ZN8facebook5velox6memory9MmapArena16removeFromLookupEmm(ptr noundef nonnull align 8 dereferenceable(120) %this, i64 noundef %0, i64 noundef %bytes)
  ret void
}